; Function Attrs: mustprogress nofree norecurse nosync nounwind willreturn memory(argmem: readwrite) uwtable
define hidden void @_ZN19OpenColorIO_v2_4dev14XmlScopeIndentC2ERNS_12XmlFormatterE(ptr nocapture noundef nonnull writeonly align 8 dereferenceable(8) %this, ptr noundef nonnull align 8 dereferenceable(16) %formatter) unnamed_addr #2 align 2 {
entry:
  store ptr %formatter, ptr %this, align 8
  %m_indentLevel.i = getelementptr inbounds i8, ptr %formatter, i64 8
  %0 = load i32, ptr %m_indentLevel.i, align 8
  %inc.i = add nsw i32 %0, 1
  store i32 %inc.i, ptr %m_indentLevel.i, align 8
  ret void
}